; ModuleID = '14/99.c'
source_filename = "14/99.c"
target datalayout = "e-m:e-p270:32:32-p271:32:32-p272:64:64-i64:64-f80:128-n8:16:32:64-S128"
target triple = "x86_64-pc-linux-gnu"

%struct.stu = type { i32, i32, i32, i32 }
%struct.str = type { i32, i32 }

@.str = private unnamed_addr constant [3 x i8] c"%d\00", align 1
@.str.1 = private unnamed_addr constant [10 x i8] c"%d %d %d\0A\00", align 1
@a = common dso_local global [100000 x %struct.stu] zeroinitializer, align 16
@b = common dso_local global [100000 x %struct.str] zeroinitializer, align 16
@.str.2 = private unnamed_addr constant [7 x i8] c"%d %d\0A\00", align 1

; Function Attrs: noinline nounwind uwtable
define dso_local i32 @main() #0 {
  %1 = alloca i32, align 4
  %2 = alloca i32, align 4
  %3 = alloca i32, align 4
  %4 = alloca i32, align 4
  store i32 0, i32* %1, align 4
  %5 = call i32 (i8*, ...) @__isoc99_scanf(i8* getelementptr inbounds ([3 x i8], [3 x i8]* @.str, i64 0, i64 0), i32* %3)
  store i32 0, i32* %2, align 4
  br label %6

6:                                                ; preds = %48, %0
  %7 = load i32, i32* %2, align 4
  %8 = load i32, i32* %3, align 4
  %9 = icmp slt i32 %7, %8
  br i1 %9, label %10, label %51

10:                                               ; preds = %6
  %11 = load i32, i32* %2, align 4
  %12 = sext i32 %11 to i64
  %13 = getelementptr inbounds [100000 x %struct.stu], [100000 x %struct.stu]* @a, i64 0, i64 %12
  %14 = getelementptr inbounds %struct.stu, %struct.stu* %13, i32 0, i32 0
  %15 = load i32, i32* %2, align 4
  %16 = sext i32 %15 to i64
  %17 = getelementptr inbounds [100000 x %struct.stu], [100000 x %struct.stu]* @a, i64 0, i64 %16
  %18 = getelementptr inbounds %struct.stu, %struct.stu* %17, i32 0, i32 1
  %19 = load i32, i32* %2, align 4
  %20 = sext i32 %19 to i64
  %21 = getelementptr inbounds [100000 x %struct.stu], [100000 x %struct.stu]* @a, i64 0, i64 %20
  %22 = getelementptr inbounds %struct.stu, %struct.stu* %21, i32 0, i32 2
  %23 = call i32 (i8*, ...) @__isoc99_scanf(i8* getelementptr inbounds ([10 x i8], [10 x i8]* @.str.1, i64 0, i64 0), i32* %14, i32* %18, i32* %22)
  %24 = load i32, i32* %2, align 4
  %25 = sext i32 %24 to i64
  %26 = getelementptr inbounds [100000 x %struct.stu], [100000 x %struct.stu]* @a, i64 0, i64 %25
  %27 = getelementptr inbounds %struct.stu, %struct.stu* %26, i32 0, i32 0
  %28 = load i32, i32* %27, align 16
  %29 = load i32, i32* %2, align 4
  %30 = sext i32 %29 to i64
  %31 = getelementptr inbounds [100000 x %struct.str], [100000 x %struct.str]* @b, i64 0, i64 %30
  %32 = getelementptr inbounds %struct.str, %struct.str* %31, i32 0, i32 0
  store i32 %28, i32* %32, align 8
  %33 = load i32, i32* %2, align 4
  %34 = sext i32 %33 to i64
  %35 = getelementptr inbounds [100000 x %struct.stu], [100000 x %struct.stu]* @a, i64 0, i64 %34
  %36 = getelementptr inbounds %struct.stu, %struct.stu* %35, i32 0, i32 1
  %37 = load i32, i32* %36, align 4
  %38 = load i32, i32* %2, align 4
  %39 = sext i32 %38 to i64
  %40 = getelementptr inbounds [100000 x %struct.stu], [100000 x %struct.stu]* @a, i64 0, i64 %39
  %41 = getelementptr inbounds %struct.stu, %struct.stu* %40, i32 0, i32 2
  %42 = load i32, i32* %41, align 8
  %43 = add nsw i32 %37, %42
  %44 = load i32, i32* %2, align 4
  %45 = sext i32 %44 to i64
  %46 = getelementptr inbounds [100000 x %struct.str], [100000 x %struct.str]* @b, i64 0, i64 %45
  %47 = getelementptr inbounds %struct.str, %struct.str* %46, i32 0, i32 1
  store i32 %43, i32* %47, align 4
  br label %48

48:                                               ; preds = %10
  %49 = load i32, i32* %2, align 4
  %50 = add nsw i32 %49, 1
  store i32 %50, i32* %2, align 4
  br label %6

51:                                               ; preds = %6
  store i32 0, i32* %2, align 4
  br label %52

52:                                               ; preds = %104, %51
  %53 = load i32, i32* %2, align 4
  %54 = icmp slt i32 %53, 3
  br i1 %54, label %55, label %107

55:                                               ; preds = %52
  %56 = load i32, i32* %2, align 4
  %57 = add nsw i32 %56, 1
  store i32 %57, i32* %4, align 4
  br label %58

58:                                               ; preds = %100, %55
  %59 = load i32, i32* %4, align 4
  %60 = load i32, i32* %3, align 4
  %61 = icmp slt i32 %59, %60
  br i1 %61, label %62, label %103

62:                                               ; preds = %58
  %63 = load i32, i32* %2, align 4
  %64 = sext i32 %63 to i64
  %65 = getelementptr inbounds [100000 x %struct.str], [100000 x %struct.str]* @b, i64 0, i64 %64
  %66 = getelementptr inbounds %struct.str, %struct.str* %65, i32 0, i32 1
  %67 = load i32, i32* %66, align 4
  %68 = load i32, i32* %4, align 4
  %69 = sext i32 %68 to i64
  %70 = getelementptr inbounds [100000 x %struct.str], [100000 x %struct.str]* @b, i64 0, i64 %69
  %71 = getelementptr inbounds %struct.str, %struct.str* %70, i32 0, i32 1
  %72 = load i32, i32* %71, align 4
  %73 = icmp slt i32 %67, %72
  br i1 %73, label %74, label %99

74:                                               ; preds = %62
  %75 = load i32, i32* %3, align 4
  %76 = sext i32 %75 to i64
  %77 = getelementptr inbounds [100000 x %struct.str], [100000 x %struct.str]* @b, i64 0, i64 %76
  %78 = load i32, i32* %2, align 4
  %79 = sext i32 %78 to i64
  %80 = getelementptr inbounds [100000 x %struct.str], [100000 x %struct.str]* @b, i64 0, i64 %79
  %81 = bitcast %struct.str* %77 to i8*
  %82 = bitcast %struct.str* %80 to i8*
  call void @llvm.memcpy.p0i8.p0i8.i64(i8* align 8 %81, i8* align 8 %82, i64 8, i1 false)
  %83 = load i32, i32* %2, align 4
  %84 = sext i32 %83 to i64
  %85 = getelementptr inbounds [100000 x %struct.str], [100000 x %struct.str]* @b, i64 0, i64 %84
  %86 = load i32, i32* %4, align 4
  %87 = sext i32 %86 to i64
  %88 = getelementptr inbounds [100000 x %struct.str], [100000 x %struct.str]* @b, i64 0, i64 %87
  %89 = bitcast %struct.str* %85 to i8*
  %90 = bitcast %struct.str* %88 to i8*
  call void @llvm.memcpy.p0i8.p0i8.i64(i8* align 8 %89, i8* align 8 %90, i64 8, i1 false)
  %91 = load i32, i32* %4, align 4
  %92 = sext i32 %91 to i64
  %93 = getelementptr inbounds [100000 x %struct.str], [100000 x %struct.str]* @b, i64 0, i64 %92
  %94 = load i32, i32* %3, align 4
  %95 = sext i32 %94 to i64
  %96 = getelementptr inbounds [100000 x %struct.str], [100000 x %struct.str]* @b, i64 0, i64 %95
  %97 = bitcast %struct.str* %93 to i8*
  %98 = bitcast %struct.str* %96 to i8*
  call void @llvm.memcpy.p0i8.p0i8.i64(i8* align 8 %97, i8* align 8 %98, i64 8, i1 false)
  br label %99

99:                                               ; preds = %74, %62
  br label %100

100:                                              ; preds = %99
  %101 = load i32, i32* %4, align 4
  %102 = add nsw i32 %101, 1
  store i32 %102, i32* %4, align 4
  br label %58

103:                                              ; preds = %58
  br label %104

104:                                              ; preds = %103
  %105 = load i32, i32* %2, align 4
  %106 = add nsw i32 %105, 1
  store i32 %106, i32* %2, align 4
  br label %52

107:                                              ; preds = %52
  store i32 0, i32* %2, align 4
  br label %108

108:                                              ; preds = %123, %107
  %109 = load i32, i32* %2, align 4
  %110 = icmp slt i32 %109, 3
  br i1 %110, label %111, label %126

111:                                              ; preds = %108
  %112 = load i32, i32* %2, align 4
  %113 = sext i32 %112 to i64
  %114 = getelementptr inbounds [100000 x %struct.str], [100000 x %struct.str]* @b, i64 0, i64 %113
  %115 = getelementptr inbounds %struct.str, %struct.str* %114, i32 0, i32 0
  %116 = load i32, i32* %115, align 8
  %117 = load i32, i32* %2, align 4
  %118 = sext i32 %117 to i64
  %119 = getelementptr inbounds [100000 x %struct.str], [100000 x %struct.str]* @b, i64 0, i64 %118
  %120 = getelementptr inbounds %struct.str, %struct.str* %119, i32 0, i32 1
  %121 = load i32, i32* %120, align 4
  %122 = call i32 (i8*, ...) @printf(i8* getelementptr inbounds ([7 x i8], [7 x i8]* @.str.2, i64 0, i64 0), i32 %116, i32 %121)
  br label %123

123:                                              ; preds = %111
  %124 = load i32, i32* %2, align 4
  %125 = add nsw i32 %124, 1
  store i32 %125, i32* %2, align 4
  br label %108

126:                                              ; preds = %108
  %127 = load i32, i32* %1, align 4
  ret i32 %127
}

declare dso_local i32 @__isoc99_scanf(i8*, ...) #1

; Function Attrs: argmemonly nounwind willreturn
declare void @llvm.memcpy.p0i8.p0i8.i64(i8* noalias nocapture writeonly, i8* noalias nocapture readonly, i64, i1 immarg) #2

declare dso_local i32 @printf(i8*, ...) #1


!llvm.module.flags = !{!0}
!llvm.ident = !{!1}

!0 = !{i32 1, !"wchar_size", i32 4}
!1 = !{!"clang version 10.0.0-4ubuntu1 "}
